target datalayout = "e-m:e-p270:32:32-p271:32:32-p272:64:64-i64:64-i128:128-f80:128-n8:16:32:64-S128"
target triple = "x86_64-pc-linux-gnu"

%struct._timelib_error_container = type { ptr, ptr, i32, i32 }
%struct._timelib_error_message = type { i32, i32, i8, ptr }

; Function Attrs: nounwind uwtable
define hidden void @timelib_error_container_dtor(ptr noundef %0) #0 {
  %2 = alloca ptr, align 8
  %3 = alloca i32, align 4
  store ptr %0, ptr %2, align 8
  store i32 0, ptr %3, align 4
  br label %4

4:                                                ; preds = %19, %1
  %5 = load i32, ptr %3, align 4
  %6 = load ptr, ptr %2, align 8
  %7 = getelementptr inbounds %struct._timelib_error_container, ptr %6, i32 0, i32 3
  %8 = load i32, ptr %7, align 4
  %9 = icmp slt i32 %5, %8
  br i1 %9, label %10, label %22

10:                                               ; preds = %4
  %11 = load ptr, ptr %2, align 8
  %12 = getelementptr inbounds %struct._timelib_error_container, ptr %11, i32 0, i32 1
  %13 = load ptr, ptr %12, align 8
  %14 = load i32, ptr %3, align 4
  %15 = sext i32 %14 to i64
  %16 = getelementptr inbounds %struct._timelib_error_message, ptr %13, i64 %15
  %17 = getelementptr inbounds %struct._timelib_error_message, ptr %16, i32 0, i32 3
  %18 = load ptr, ptr %17, align 8
  call void @_efree(ptr noundef %18)
  br label %19

19:                                               ; preds = %10
  %20 = load i32, ptr %3, align 4
  %21 = add nsw i32 %20, 1
  store i32 %21, ptr %3, align 4
  br label %4

22:                                               ; preds = %4
  %23 = load ptr, ptr %2, align 8
  %24 = getelementptr inbounds %struct._timelib_error_container, ptr %23, i32 0, i32 1
  %25 = load ptr, ptr %24, align 8
  call void @_efree(ptr noundef %25)
  store i32 0, ptr %3, align 4
  br label %26

26:                                               ; preds = %41, %22
  %27 = load i32, ptr %3, align 4
  %28 = load ptr, ptr %2, align 8
  %29 = getelementptr inbounds %struct._timelib_error_container, ptr %28, i32 0, i32 2
  %30 = load i32, ptr %29, align 8
  %31 = icmp slt i32 %27, %30
  br i1 %31, label %32, label %44

32:                                               ; preds = %26
  %33 = load ptr, ptr %2, align 8
  %34 = getelementptr inbounds %struct._timelib_error_container, ptr %33, i32 0, i32 0
  %35 = load ptr, ptr %34, align 8
  %36 = load i32, ptr %3, align 4
  %37 = sext i32 %36 to i64
  %38 = getelementptr inbounds %struct._timelib_error_message, ptr %35, i64 %37
  %39 = getelementptr inbounds %struct._timelib_error_message, ptr %38, i32 0, i32 3
  %40 = load ptr, ptr %39, align 8
  call void @_efree(ptr noundef %40)
  br label %41

41:                                               ; preds = %32
  %42 = load i32, ptr %3, align 4
  %43 = add nsw i32 %42, 1
  store i32 %43, ptr %3, align 4
  br label %26

44:                                               ; preds = %26
  %45 = load ptr, ptr %2, align 8
  %46 = getelementptr inbounds %struct._timelib_error_container, ptr %45, i32 0, i32 0
  %47 = load ptr, ptr %46, align 8
  call void @_efree(ptr noundef %47)
  %48 = load ptr, ptr %2, align 8
  call void @_efree(ptr noundef %48)
  ret void
}