; Function Attrs: nounwind uwtable
define hidden void @timelib_error_container_dtor(ptr noundef %0) local_unnamed_addr #1 {
  %2 = getelementptr inbounds i8, ptr %0, i64 20
  %3 = load i32, ptr %2, align 4
  %4 = icmp sgt i32 %3, 0
  br i1 %4, label %.lr.ph, label %._crit_edge

.lr.ph:                                           ; preds = %1
  %5 = getelementptr inbounds i8, ptr %0, i64 8
  br label %6

6:                                                ; preds = %.lr.ph, %6
  %indvars.iv = phi i64 [ 0, %.lr.ph ], [ %indvars.iv.next, %6 ]
  %7 = load ptr, ptr %5, align 8
  %8 = getelementptr inbounds %struct._timelib_error_message, ptr %7, i64 %indvars.iv, i32 3
  %9 = load ptr, ptr %8, align 8
  tail call void @_efree(ptr noundef %9) #18
  %indvars.iv.next = add nuw nsw i64 %indvars.iv, 1
  %10 = load i32, ptr %2, align 4
  %11 = sext i32 %10 to i64
  %12 = icmp slt i64 %indvars.iv.next, %11
  br i1 %12, label %6, label %._crit_edge

._crit_edge:                                      ; preds = %6, %1
  %13 = getelementptr inbounds i8, ptr %0, i64 8
  %14 = load ptr, ptr %13, align 8
  tail call void @_efree(ptr noundef %14) #18
  %15 = getelementptr inbounds i8, ptr %0, i64 16
  %16 = load i32, ptr %15, align 8
  %17 = icmp sgt i32 %16, 0
  br i1 %17, label %.lr.ph15, label %._crit_edge16

.lr.ph15:                                         ; preds = %._crit_edge, %.lr.ph15
  %indvars.iv18 = phi i64 [ %indvars.iv.next19, %.lr.ph15 ], [ 0, %._crit_edge ]
  %18 = load ptr, ptr %0, align 8
  %19 = getelementptr inbounds %struct._timelib_error_message, ptr %18, i64 %indvars.iv18, i32 3
  %20 = load ptr, ptr %19, align 8
  tail call void @_efree(ptr noundef %20) #18
  %indvars.iv.next19 = add nuw nsw i64 %indvars.iv18, 1
  %21 = load i32, ptr %15, align 8
  %22 = sext i32 %21 to i64
  %23 = icmp slt i64 %indvars.iv.next19, %22
  br i1 %23, label %.lr.ph15, label %._crit_edge16

._crit_edge16:                                    ; preds = %.lr.ph15, %._crit_edge
  %24 = load ptr, ptr %0, align 8
  tail call void @_efree(ptr noundef %24) #18
  tail call void @_efree(ptr noundef nonnull %0) #18
  ret void
}